///////////////////////////////////////////////////////////////////////////////
//                                                                            /
// IAR C/C++ Compiler V8.10.1.10194/W32 for 8051        13/Jun/2017  13:32:57 /
// Copyright 2004-2011 IAR Systems AB.                                        /
//                                                                            /
//    Core               =  plain                                             /
//    Code model         =  banked                                            /
//    Data model         =  large                                             /
//    Calling convention =  xdata reentrant                                   /
//    Constant location  =  data_rom                                          /
//    Dptr setup         =  1,16                                              /
//    Source file        =  D:\ÎÞÏß´«¸ÐÍøÂç\¿Î³ÌÉè¼Æ\final\·Ö»ú3\8¡¢´®¿ÚÍ¸´«- /
//                          ´òÔìÎÞÏß´®¿ÚÄ£¿é\Projects\zstack\Samples\SampleAp /
//                          p\Source\LED.c                                    /
//    Command line       =  -f D:\ÎÞÏß´«¸ÐÍøÂç\¿Î³ÌÉè¼Æ\final\·Ö»ú3\8¡¢´®¿ÚÍ¸ /
//                          ´«-´òÔìÎÞÏß´®¿ÚÄ£¿é\Projects\zstack\Samples\Sampl /
//                          eApp\CC2530DB\..\..\..\Tools\CC2530DB\f8wEndev.cf /
//                          g (-DCPU32MHZ -DROOT=__near_func                  /
//                          -DMAC_CFG_TX_DATA_MAX=3 -DMAC_CFG_TX_MAX=6        /
//                          -DMAC_CFG_RX_MAX=3) -f D:\ÎÞÏß´«¸ÐÍøÂç\¿Î³ÌÉè¼Æ\f /
//                          inal\·Ö»ú3\8¡¢´®¿ÚÍ¸´«-´òÔìÎÞÏß´®¿ÚÄ£¿é\Projects\ /
//                          zstack\Samples\SampleApp\CC2530DB\..\..\..\Tools\ /
//                          CC2530DB\f8wConfig.cfg (-DZIGBEEPRO -DSECURE=0    /
//                          -DZG_SECURE_DYNAMIC=0 -DREFLECTOR                 /
//                          -DDEFAULT_CHANLIST=0x00000800                     /
//                          -DZDAPP_CONFIG_PAN_ID=0xFFAA                      /
//                          -DNWK_START_DELAY=100 -DEXTENDED_JOINING_RANDOM_M /
//                          ASK=0x007F -DBEACON_REQUEST_DELAY=100             /
//                          -DBEACON_REQ_DELAY_MASK=0x00FF                    /
//                          -DLINK_STATUS_JITTER_MASK=0x007F                  /
//                          -DROUTE_EXPIRY_TIME=30 -DAPSC_ACK_WAIT_DURATION_P /
//                          OLLED=3000 -DNWK_INDIRECT_MSG_TIMEOUT=7           /
//                          -DMAX_RREQ_ENTRIES=8 -DAPSC_MAX_FRAME_RETRIES=3   /
//                          -DNWK_MAX_DATA_RETRIES=2                          /
//                          -DMAX_POLL_FAILURE_RETRIES=2 -DMAX_BCAST=9        /
//                          -DAPS_MAX_GROUPS=16 -DMAX_RTG_ENTRIES=40          /
//                          -DNWK_MAX_BINDING_ENTRIES=4                       /
//                          -DMAX_BINDING_CLUSTER_IDS=4                       /
//                          "-DDEFAULT_KEY={0x01, 0x03, 0x05, 0x07, 0x09,     /
//                          0x0B, 0x0D, 0x0F, 0x00, 0x02, 0x04, 0x06, 0x08,   /
//                          0x0A, 0x0C, 0x0D}" -DMAC_MAX_FRAME_SIZE=116       /
//                          -DZDNWKMGR_MIN_TRANSMISSIONS=20 "-DCONST=const    /
//                          __code" -DGENERIC=__generic                       /
//                          -DRFD_RCVC_ALWAYS_ON=FALSE -DPOLL_RATE=1000       /
//                          -DQUEUED_POLL_RATE=100 -DRESPONSE_POLL_RATE=100)  /
//                          -DREJOIN_POLL_RATE=440 D:\ÎÞÏß´«¸ÐÍøÂç\¿Î³ÌÉè¼Æ\f /
//                          inal\·Ö»ú3\8¡¢´®¿ÚÍ¸´«-´òÔìÎÞÏß´®¿ÚÄ£¿é\Projects\ /
//                          zstack\Samples\SampleApp\Source\LED.c -D          /
//                          xNV_RESTORE -D NWK_AUTO_POLL -D ZTOOL_P1 -D       /
//                          xMT_TASK -D xMT_SYS_FUNC -D xMT_ZDO_FUNC -D       /
//                          LCD_SUPPORTED=DEBUG -lC                           /
//                          D:\ÎÞÏß´«¸ÐÍøÂç\¿Î³ÌÉè¼Æ\final\·Ö»ú3\8¡¢´®¿ÚÍ¸´«- /
//                          ´òÔìÎÞÏß´®¿ÚÄ£¿é\Projects\zstack\Samples\SampleAp /
//                          p\CC2530DB\EndDeviceEB\List\ -lA                  /
//                          D:\ÎÞÏß´«¸ÐÍøÂç\¿Î³ÌÉè¼Æ\final\·Ö»ú3\8¡¢´®¿ÚÍ¸´«- /
//                          ´òÔìÎÞÏß´®¿ÚÄ£¿é\Projects\zstack\Samples\SampleAp /
//                          p\CC2530DB\EndDeviceEB\List\ --diag_suppress      /
//                          Pe001,Pa010 -o D:\ÎÞÏß´«¸ÐÍøÂç\¿Î³ÌÉè¼Æ\final\·Ö» /
//                          ú3\8¡¢´®¿ÚÍ¸´«-´òÔìÎÞÏß´®¿ÚÄ£¿é\Projects\zstack\S /
//                          amples\SampleApp\CC2530DB\EndDeviceEB\Obj\ -e     /
//                          --no_code_motion --debug --core=plain             /
//                          --dptr=16,1 --data_model=large                    /
//                          --code_model=banked --calling_convention=xdata_re /
//                          entrant --place_constants=data_rom                /
//                          --nr_virtual_regs 16 -I                           /
//                          D:\ÎÞÏß´«¸ÐÍøÂç\¿Î³ÌÉè¼Æ\final\·Ö»ú3\8¡¢´®¿ÚÍ¸´«- /
//                          ´òÔìÎÞÏß´®¿ÚÄ£¿é\Projects\zstack\Samples\SampleAp /
//                          p\CC2530DB\ -I D:\ÎÞÏß´«¸ÐÍøÂç\¿Î³ÌÉè¼Æ\final\·Ö» /
//                          ú3\8¡¢´®¿ÚÍ¸´«-´òÔìÎÞÏß´®¿ÚÄ£¿é\Projects\zstack\S /
//                          amples\SampleApp\CC2530DB\..\Source\ -I           /
//                          D:\ÎÞÏß´«¸ÐÍøÂç\¿Î³ÌÉè¼Æ\final\·Ö»ú3\8¡¢´®¿ÚÍ¸´«- /
//                          ´òÔìÎÞÏß´®¿ÚÄ£¿é\Projects\zstack\Samples\SampleAp /
//                          p\CC2530DB\..\..\..\ZMain\TI2530DB\ -I            /
//                          D:\ÎÞÏß´«¸ÐÍøÂç\¿Î³ÌÉè¼Æ\final\·Ö»ú3\8¡¢´®¿ÚÍ¸´«- /
//                          ´òÔìÎÞÏß´®¿ÚÄ£¿é\Projects\zstack\Samples\SampleAp /
//                          p\CC2530DB\..\..\..\..\..\Components\hal\include\ /
//                           -I D:\ÎÞÏß´«¸ÐÍøÂç\¿Î³ÌÉè¼Æ\final\·Ö»ú3\8¡¢´®¿ÚÍ /
//                          ¸´«-´òÔìÎÞÏß´®¿ÚÄ£¿é\Projects\zstack\Samples\Samp /
//                          leApp\CC2530DB\..\..\..\..\..\Components\hal\targ /
//                          et\CC2530EB\ -I D:\ÎÞÏß´«¸ÐÍøÂç\¿Î³ÌÉè¼Æ\final\·Ö /
//                          »ú3\8¡¢´®¿ÚÍ¸´«-´òÔìÎÞÏß´®¿ÚÄ£¿é\Projects\zstack\ /
//                          Samples\SampleApp\CC2530DB\..\..\..\..\..\Compone /
//                          nts\mac\include\ -I D:\ÎÞÏß´«¸ÐÍøÂç\¿Î³ÌÉè¼Æ\fina /
//                          l\·Ö»ú3\8¡¢´®¿ÚÍ¸´«-´òÔìÎÞÏß´®¿ÚÄ£¿é\Projects\zst /
//                          ack\Samples\SampleApp\CC2530DB\..\..\..\..\..\Com /
//                          ponents\mac\high_level\ -I                        /
//                          D:\ÎÞÏß´«¸ÐÍøÂç\¿Î³ÌÉè¼Æ\final\·Ö»ú3\8¡¢´®¿ÚÍ¸´«- /
//                          ´òÔìÎÞÏß´®¿ÚÄ£¿é\Projects\zstack\Samples\SampleAp /
//                          p\CC2530DB\..\..\..\..\..\Components\mac\low_leve /
//                          l\srf04\ -I D:\ÎÞÏß´«¸ÐÍøÂç\¿Î³ÌÉè¼Æ\final\·Ö»ú3\ /
//                          8¡¢´®¿ÚÍ¸´«-´òÔìÎÞÏß´®¿ÚÄ£¿é\Projects\zstack\Samp /
//                          les\SampleApp\CC2530DB\..\..\..\..\..\Components\ /
//                          mac\low_level\srf04\single_chip\ -I               /
//                          D:\ÎÞÏß´«¸ÐÍøÂç\¿Î³ÌÉè¼Æ\final\·Ö»ú3\8¡¢´®¿ÚÍ¸´«- /
//                          ´òÔìÎÞÏß´®¿ÚÄ£¿é\Projects\zstack\Samples\SampleAp /
//                          p\CC2530DB\..\..\..\..\..\Components\mt\ -I       /
//                          D:\ÎÞÏß´«¸ÐÍøÂç\¿Î³ÌÉè¼Æ\final\·Ö»ú3\8¡¢´®¿ÚÍ¸´«- /
//                          ´òÔìÎÞÏß´®¿ÚÄ£¿é\Projects\zstack\Samples\SampleAp /
//                          p\CC2530DB\..\..\..\..\..\Components\osal\include /
//                          \ -I D:\ÎÞÏß´«¸ÐÍøÂç\¿Î³ÌÉè¼Æ\final\·Ö»ú3\8¡¢´®¿Ú /
//                          Í¸´«-´òÔìÎÞÏß´®¿ÚÄ£¿é\Projects\zstack\Samples\Sam /
//                          pleApp\CC2530DB\..\..\..\..\..\Components\service /
//                          s\saddr\ -I D:\ÎÞÏß´«¸ÐÍøÂç\¿Î³ÌÉè¼Æ\final\·Ö»ú3\ /
//                          8¡¢´®¿ÚÍ¸´«-´òÔìÎÞÏß´®¿ÚÄ£¿é\Projects\zstack\Samp /
//                          les\SampleApp\CC2530DB\..\..\..\..\..\Components\ /
//                          services\sdata\ -I D:\ÎÞÏß´«¸ÐÍøÂç\¿Î³ÌÉè¼Æ\final /
//                          \·Ö»ú3\8¡¢´®¿ÚÍ¸´«-´òÔìÎÞÏß´®¿ÚÄ£¿é\Projects\zsta /
//                          ck\Samples\SampleApp\CC2530DB\..\..\..\..\..\Comp /
//                          onents\stack\af\ -I D:\ÎÞÏß´«¸ÐÍøÂç\¿Î³ÌÉè¼Æ\fina /
//                          l\·Ö»ú3\8¡¢´®¿ÚÍ¸´«-´òÔìÎÞÏß´®¿ÚÄ£¿é\Projects\zst /
//                          ack\Samples\SampleApp\CC2530DB\..\..\..\..\..\Com /
//                          ponents\stack\nwk\ -I D:\ÎÞÏß´«¸ÐÍøÂç\¿Î³ÌÉè¼Æ\fi /
//                          nal\·Ö»ú3\8¡¢´®¿ÚÍ¸´«-´òÔìÎÞÏß´®¿ÚÄ£¿é\Projects\z /
//                          stack\Samples\SampleApp\CC2530DB\..\..\..\..\..\C /
//                          omponents\stack\sapi\ -I                          /
//                          D:\ÎÞÏß´«¸ÐÍøÂç\¿Î³ÌÉè¼Æ\final\·Ö»ú3\8¡¢´®¿ÚÍ¸´«- /
//                          ´òÔìÎÞÏß´®¿ÚÄ£¿é\Projects\zstack\Samples\SampleAp /
//                          p\CC2530DB\..\..\..\..\..\Components\stack\sec\   /
//                          -I D:\ÎÞÏß´«¸ÐÍøÂç\¿Î³ÌÉè¼Æ\final\·Ö»ú3\8¡¢´®¿ÚÍ¸ /
//                          ´«-´òÔìÎÞÏß´®¿ÚÄ£¿é\Projects\zstack\Samples\Sampl /
//                          eApp\CC2530DB\..\..\..\..\..\Components\stack\sys /
//                          \ -I D:\ÎÞÏß´«¸ÐÍøÂç\¿Î³ÌÉè¼Æ\final\·Ö»ú3\8¡¢´®¿Ú /
//                          Í¸´«-´òÔìÎÞÏß´®¿ÚÄ£¿é\Projects\zstack\Samples\Sam /
//                          pleApp\CC2530DB\..\..\..\..\..\Components\stack\z /
//                          do\ -I D:\ÎÞÏß´«¸ÐÍøÂç\¿Î³ÌÉè¼Æ\final\·Ö»ú3\8¡¢´® /
//                          ¿ÚÍ¸´«-´òÔìÎÞÏß´®¿ÚÄ£¿é\Projects\zstack\Samples\S /
//                          ampleApp\CC2530DB\..\..\..\..\..\Components\zmac\ /
//                           -I D:\ÎÞÏß´«¸ÐÍøÂç\¿Î³ÌÉè¼Æ\final\·Ö»ú3\8¡¢´®¿ÚÍ /
//                          ¸´«-´òÔìÎÞÏß´®¿ÚÄ£¿é\Projects\zstack\Samples\Samp /
//                          leApp\CC2530DB\..\..\..\..\..\Components\zmac\f8w /
//                          \ -Ohz --require_prototypes                       /
//    List file          =  D:\ÎÞÏß´«¸ÐÍøÂç\¿Î³ÌÉè¼Æ\final\·Ö»ú3\8¡¢´®¿ÚÍ¸´«- /
//                          ´òÔìÎÞÏß´®¿ÚÄ£¿é\Projects\zstack\Samples\SampleAp /
//                          p\CC2530DB\EndDeviceEB\List\LED.s51               /
//                                                                            /
//                                                                            /
///////////////////////////////////////////////////////////////////////////////

        NAME LED

        RTMODEL "__SystemLibrary", "CLib"
        RTMODEL "__calling_convention", "xdata_reentrant"
        RTMODEL "__code_model", "banked"
        RTMODEL "__core", "plain"
        RTMODEL "__data_model", "large"
        RTMODEL "__dptr_size", "16"
        RTMODEL "__extended_stack", "disabled"
        RTMODEL "__location_for_constants", "data"
        RTMODEL "__number_of_dptrs", "1"
        RTMODEL "__rt_version", "1"

        RSEG DOVERLAY:DATA:NOROOT(0)
        RSEG IOVERLAY:IDATA:NOROOT(0)
        RSEG ISTACK:IDATA:NOROOT(0)
        RSEG PSTACK:XDATA:NOROOT(0)
        RSEG XSTACK:XDATA:NOROOT(0)

        EXTERN ?BANKED_ENTER_XDATA
        EXTERN ?BANKED_LEAVE_XDATA
        EXTERN ?BDISPATCH
        EXTERN ?BRET
        EXTERN ?V0

        PUBLIC ??Delay_10us?relay
        FUNCTION ??Delay_10us?relay,0203H
        PUBLIC ??Delay_ms?relay
        FUNCTION ??Delay_ms?relay,0203H
        PUBLIC ??Delay_us?relay
        FUNCTION ??Delay_us?relay,0203H
        PUBLIC ??LED1_toggle?relay
        FUNCTION ??LED1_toggle?relay,0203H
        PUBLIC ??LED2_toggle?relay
        FUNCTION ??LED2_toggle?relay,0203H
        PUBLIC ??LED_Initial?relay
        FUNCTION ??LED_Initial?relay,0203H
        PUBLIC Delay_10us
        FUNCTION Delay_10us,021203H
        ARGFRAME XSTACK, 0, STACK
        LOCFRAME ISTACK, 2, STACK
        PUBLIC Delay_ms
        FUNCTION Delay_ms,021203H
        ARGFRAME XSTACK, 0, STACK
        LOCFRAME XSTACK, 9, STACK
        PUBLIC Delay_us
        FUNCTION Delay_us,021203H
        ARGFRAME XSTACK, 0, STACK
        LOCFRAME ISTACK, 2, STACK
        PUBLIC LED1_toggle
        FUNCTION LED1_toggle,0203H
        ARGFRAME XSTACK, 0, STACK
        PUBLIC LED2_toggle
        FUNCTION LED2_toggle,0203H
        ARGFRAME XSTACK, 0, STACK
        PUBLIC LED_Initial
        FUNCTION LED_Initial,0203H
        ARGFRAME XSTACK, 0, STACK
        PUBWEAK P1DIR
        PUBWEAK P1SEL
        PUBWEAK _A_P1
        
        CFI Names cfiNames0
        CFI StackFrame CFA_SP SP IDATA
        CFI StackFrame CFA_PSP16 PSP16 XDATA
        CFI StackFrame CFA_XSP16 XSP16 XDATA
        CFI StaticOverlayFrame CFA_IOVERLAY IOVERLAY
        CFI StaticOverlayFrame CFA_DOVERLAY DOVERLAY
        CFI Resource `PSW.CY`:1, `B.BR0`:1, `B.BR1`:1, `B.BR2`:1, `B.BR3`:1
        CFI Resource `B.BR4`:1, `B.BR5`:1, `B.BR6`:1, `B.BR7`:1, `VB.BR8`:1
        CFI Resource `VB.BR9`:1, `VB.BR10`:1, `VB.BR11`:1, `VB.BR12`:1
        CFI Resource `VB.BR13`:1, `VB.BR14`:1, `VB.BR15`:1, VB:8, B:8, A:8
        CFI Resource PSW:8, DPL0:8, DPH0:8, R0:8, R1:8, R2:8, R3:8, R4:8, R5:8
        CFI Resource R6:8, R7:8, V0:8, V1:8, V2:8, V3:8, V4:8, V5:8, V6:8, V7:8
        CFI Resource V8:8, V9:8, V10:8, V11:8, V12:8, V13:8, V14:8, V15:8, SP:8
        CFI Resource PSPH:8, PSPL:8, PSP16:16, XSPH:8, XSPL:8, XSP16:16
        CFI VirtualResource ?RET:24
        CFI Resource ?BRET_EXT:8
        CFI VirtualResource ?RET_HIGH:8, ?RET_LOW:8
        CFI ResourceParts PSP16 PSPH, PSPL
        CFI ResourceParts XSP16 XSPH, XSPL
        CFI ResourceParts ?RET ?BRET_EXT, ?RET_HIGH, ?RET_LOW
        CFI EndNames cfiNames0
        
        CFI Common cfiCommon0 Using cfiNames0
        CFI CodeAlign 1
        CFI DataAlign -1
        CFI ReturnAddress ?RET CODE
        CFI CFA_DOVERLAY Used
        CFI CFA_IOVERLAY Used
        CFI CFA_SP SP+-3
        CFI CFA_PSP16 PSP16+0
        CFI CFA_XSP16 XSP16+0
        CFI `PSW.CY` SameValue
        CFI `B.BR0` SameValue
        CFI `B.BR1` SameValue
        CFI `B.BR2` SameValue
        CFI `B.BR3` SameValue
        CFI `B.BR4` SameValue
        CFI `B.BR5` SameValue
        CFI `B.BR6` SameValue
        CFI `B.BR7` SameValue
        CFI `VB.BR8` SameValue
        CFI `VB.BR9` SameValue
        CFI `VB.BR10` SameValue
        CFI `VB.BR11` SameValue
        CFI `VB.BR12` SameValue
        CFI `VB.BR13` SameValue
        CFI `VB.BR14` SameValue
        CFI `VB.BR15` SameValue
        CFI VB SameValue
        CFI B Undefined
        CFI A Undefined
        CFI PSW SameValue
        CFI DPL0 SameValue
        CFI DPH0 SameValue
        CFI R0 Undefined
        CFI R1 Undefined
        CFI R2 Undefined
        CFI R3 Undefined
        CFI R4 Undefined
        CFI R5 Undefined
        CFI R6 SameValue
        CFI R7 SameValue
        CFI V0 SameValue
        CFI V1 SameValue
        CFI V2 SameValue
        CFI V3 SameValue
        CFI V4 SameValue
        CFI V5 SameValue
        CFI V6 SameValue
        CFI V7 SameValue
        CFI V8 SameValue
        CFI V9 SameValue
        CFI V10 SameValue
        CFI V11 SameValue
        CFI V12 SameValue
        CFI V13 SameValue
        CFI V14 SameValue
        CFI V15 SameValue
        CFI PSPH Undefined
        CFI PSPL Undefined
        CFI XSPH Undefined
        CFI XSPL Undefined
        CFI ?RET Concat
        CFI ?BRET_EXT Frame(CFA_SP, 3)
        CFI ?RET_HIGH Frame(CFA_SP, 2)
        CFI ?RET_LOW Frame(CFA_SP, 1)
        CFI EndCommon cfiCommon0
        
Onboard_wait        SYMBOL "Onboard_wait"
??Onboard_wait?relay SYMBOL "?relay", Onboard_wait
Delay_10us          SYMBOL "Delay_10us"
??Delay_10us?relay  SYMBOL "?relay", Delay_10us
Delay_ms            SYMBOL "Delay_ms"
??Delay_ms?relay    SYMBOL "?relay", Delay_ms
Delay_us            SYMBOL "Delay_us"
??Delay_us?relay    SYMBOL "?relay", Delay_us
LED1_toggle         SYMBOL "LED1_toggle"
??LED1_toggle?relay SYMBOL "?relay", LED1_toggle
LED2_toggle         SYMBOL "LED2_toggle"
??LED2_toggle?relay SYMBOL "?relay", LED2_toggle
LED_Initial         SYMBOL "LED_Initial"
??LED_Initial?relay SYMBOL "?relay", LED_Initial

        EXTERN Onboard_wait
        FUNCTION Onboard_wait,0202H
        ARGFRAME ISTACK, 2, STACK
        ARGFRAME PSTACK, 0, STACK
        ARGFRAME XSTACK, 9, STACK
        ARGFRAME IOVERLAY, 0, STATIC
        ARGFRAME DOVERLAY, 0, STATIC
        EXTERN ??Onboard_wait?relay
        FUNCTION ??Onboard_wait?relay,00H

// D:\ÎÞÏß´«¸ÐÍøÂç\¿Î³ÌÉè¼Æ\final\·Ö»ú3\8¡¢´®¿ÚÍ¸´«-´òÔìÎÞÏß´®¿ÚÄ£¿é\Projects\zstack\Samples\SampleApp\Source\LED.c
//    1 #include "LED.h"

        ASEGN SFR_AN:DATA:NOROOT,090H
// union <unnamed> volatile __sfr _A_P1
_A_P1:
        DATA8
        DS 1

        ASEGN SFR_AN:DATA:NOROOT,0f4H
// unsigned char volatile __sfr P1SEL
P1SEL:
        DATA8
        DS 1

        ASEGN SFR_AN:DATA:NOROOT,0feH
// unsigned char volatile __sfr P1DIR
P1DIR:
        DATA8
        DS 1
//    2 #include "OnBoard.h"
//    3 

        RSEG BANKED_CODE:CODE:NOROOT(0)
//    4 void LED_Initial(void)
LED_Initial:
        CFI Block cfiBlock0 Using cfiCommon0
        CFI Function LED_Initial
        CODE
//    5 {
        ; Saved register size: 0
        ; Auto size: 0
//    6   P1SEL &= ~0x03;   //ÉèÖÃ P1_0 = 0  P1_1 = 0 ÎªÍ¨ÓÃ I/O
        ANL     0xf4,#0xfc
//    7   P1DIR |= 0x03;    //ÉèÖÃ P1_0 = 1  P1_1 = 1 ÎªÊä³ö×´Ì¬
        ORL     0xfe,#0x3
//    8   LED1= 0;          //³õÊ¼»¯ LED1 ÎªÃð
        CLR     0x90.0
//    9   LED2= 0;          //³õÊ¼»¯ LED2 ÎªÃð
        CLR     0x90.1
//   10 }
        LJMP    ?BRET
        CFI EndBlock cfiBlock0
        REQUIRE P1SEL
        REQUIRE P1DIR
        REQUIRE _A_P1

        RSEG BANKED_CODE:CODE:NOROOT(0)
//   11 void LED1_toggle(void)
LED1_toggle:
        CFI Block cfiBlock1 Using cfiCommon0
        CFI Function LED1_toggle
        CODE
//   12 {
        ; Saved register size: 0
        ; Auto size: 0
//   13   LED1=!LED1;
        SETB    B.0
        MOV     C,0x90.0
        JNB     B.0,??LED1_toggle_0
        CPL     C
??LED1_toggle_0:
        MOV     0x90.0,C
//   14 }
        LJMP    ?BRET
        CFI EndBlock cfiBlock1
        REQUIRE _A_P1

        RSEG BANKED_CODE:CODE:NOROOT(0)
//   15 void LED2_toggle(void)
LED2_toggle:
        CFI Block cfiBlock2 Using cfiCommon0
        CFI Function LED2_toggle
        CODE
//   16 {
        ; Saved register size: 0
        ; Auto size: 0
//   17   LED2=!LED2;
        SETB    B.0
        MOV     C,0x90.1
        JNB     B.0,??LED2_toggle_0
        CPL     C
??LED2_toggle_0:
        MOV     0x90.1,C
//   18 }
        LJMP    ?BRET
        CFI EndBlock cfiBlock2
        REQUIRE _A_P1

        RSEG BANKED_CODE:CODE:NOROOT(0)
//   19 void Delay_us(void) //1 usÑÓÊ±
Delay_us:
        CFI Block cfiBlock3 Using cfiCommon0
        CFI Function Delay_us
        CODE
//   20 {
        FUNCALL Delay_us, Onboard_wait
        LOCFRAME ISTACK, 2, STACK
        LOCFRAME PSTACK, 0, STACK
        LOCFRAME XSTACK, 0, STACK
        LOCFRAME IOVERLAY, 0, STATIC
        LOCFRAME DOVERLAY, 0, STATIC
        ARGFRAME ISTACK, 2, STACK
        ARGFRAME PSTACK, 0, STACK
        ARGFRAME XSTACK, 0, STACK
        ARGFRAME IOVERLAY, 0, STATIC
        ARGFRAME DOVERLAY, 0, STATIC
        PUSH    DPL
        CFI DPL0 Frame(CFA_SP, 4)
        CFI CFA_SP SP+-4
        PUSH    DPH
        CFI DPH0 Frame(CFA_SP, 5)
        CFI CFA_SP SP+-5
        ; Saved register size: 2
        ; Auto size: 0
//   21    MicroWait(1);   
        ; Setup parameters for call to function Onboard_wait
        MOV     R2,#0x1
        CFI EndBlock cfiBlock3
        REQUIRE ?Subroutine0
        ; // Fall through to label ?Subroutine0
//   22 }

        RSEG BANKED_CODE:CODE:NOROOT(0)
?Subroutine0:
        CFI Block cfiBlock4 Using cfiCommon0
        CFI NoFunction
        CFI CFA_SP SP+-5
        CFI DPL0 Frame(CFA_SP, 4)
        CFI DPH0 Frame(CFA_SP, 5)
        MOV     R3,#0x0
        LCALL   ??Onboard_wait?relay
        POP     DPH
        CFI CFA_SP SP+-4
        CFI DPH0 SameValue
        POP     DPL
        CFI CFA_SP SP+-3
        CFI DPL0 SameValue
        LJMP    ?BRET
        CFI EndBlock cfiBlock4

        RSEG BANKED_CODE:CODE:NOROOT(0)
//   23 void Delay_10us(void) //10 usÑÓÊ±
Delay_10us:
        CFI Block cfiBlock5 Using cfiCommon0
        CFI Function Delay_10us
        CODE
//   24 {
        FUNCALL Delay_10us, Onboard_wait
        LOCFRAME ISTACK, 2, STACK
        LOCFRAME PSTACK, 0, STACK
        LOCFRAME XSTACK, 0, STACK
        LOCFRAME IOVERLAY, 0, STATIC
        LOCFRAME DOVERLAY, 0, STATIC
        ARGFRAME ISTACK, 2, STACK
        ARGFRAME PSTACK, 0, STACK
        ARGFRAME XSTACK, 0, STACK
        ARGFRAME IOVERLAY, 0, STATIC
        ARGFRAME DOVERLAY, 0, STATIC
        PUSH    DPL
        CFI DPL0 Frame(CFA_SP, 4)
        CFI CFA_SP SP+-4
        PUSH    DPH
        CFI DPH0 Frame(CFA_SP, 5)
        CFI CFA_SP SP+-5
        ; Saved register size: 2
        ; Auto size: 0
//   25   MicroWait(10);
        ; Setup parameters for call to function Onboard_wait
        MOV     R2,#0xa
        SJMP    ?Subroutine0
        CFI EndBlock cfiBlock5
//   26 }
//   27 

        RSEG BANKED_CODE:CODE:NOROOT(0)
//   28 void Delay_ms(int Time)//n msÑÓÊ±
Delay_ms:
        CFI Block cfiBlock6 Using cfiCommon0
        CFI Function Delay_ms
        CODE
//   29 {
        FUNCALL Delay_ms, Onboard_wait
        LOCFRAME ISTACK, 0, STACK
        LOCFRAME PSTACK, 0, STACK
        LOCFRAME XSTACK, 9, STACK
        LOCFRAME IOVERLAY, 0, STATIC
        LOCFRAME DOVERLAY, 0, STATIC
        ARGFRAME ISTACK, 0, STACK
        ARGFRAME PSTACK, 0, STACK
        ARGFRAME XSTACK, 9, STACK
        ARGFRAME IOVERLAY, 0, STATIC
        ARGFRAME DOVERLAY, 0, STATIC
        MOV     A,#-0x9
        LCALL   ?BANKED_ENTER_XDATA
        CFI DPH0 load(1, XDATA, add(CFA_XSP16, literal(-1)))
        CFI DPL0 load(1, XDATA, add(CFA_XSP16, literal(-2)))
        CFI ?BRET_EXT load(1, XDATA, add(CFA_XSP16, literal(-3)))
        CFI ?RET_HIGH load(1, XDATA, add(CFA_XSP16, literal(-4)))
        CFI ?RET_LOW load(1, XDATA, add(CFA_XSP16, literal(-5)))
        CFI R7 load(1, XDATA, add(CFA_XSP16, literal(-6)))
        CFI V0 load(1, XDATA, add(CFA_XSP16, literal(-7)))
        CFI VB load(1, XDATA, add(CFA_XSP16, literal(-8)))
        CFI R6 load(1, XDATA, add(CFA_XSP16, literal(-9)))
        CFI CFA_SP SP+0
        CFI CFA_XSP16 add(XSP16, 9)
        ; Saved register size: 9
        ; Auto size: 0
        MOV     A,R2
        MOV     R6,A
        MOV     A,R3
        MOV     R7,A
//   30   unsigned char i;
//   31   while(Time--)
??Delay_ms_0:
        MOV     A,R6
        MOV     R0,A
        MOV     A,R7
        MOV     R1,A
        MOV     A,R0
        ADD     A,#-0x1
        DEC     R6
        MOV     A,R1
        ADDC    A,#-0x1
        MOV     R7,A
        MOV     A,R0
        ORL     A,R1
        JZ      ??Delay_ms_1
//   32   {
//   33     for(i=0;i<100;i++)
        MOV     ?V0 + 0,#0x64
//   34      Delay_10us();
??Delay_ms_2:
        ; Setup parameters for call to function Onboard_wait
        MOV     R2,#0xa
        MOV     R3,#0x0
        LCALL   ??Onboard_wait?relay
        DEC     ?V0 + 0
        MOV     A,?V0 + 0
        JZ      ??Delay_ms_0
        SJMP    ??Delay_ms_2
//   35   }
//   36 }
??Delay_ms_1:
        MOV     R7,#0x1
        LJMP    ?BANKED_LEAVE_XDATA
        CFI EndBlock cfiBlock6

        RSEG BANK_RELAYS:CODE:REORDER:NOROOT(0)
??LED_Initial?relay:
        LCALL   ?BDISPATCH
        DATA
        DC24    LED_Initial

        RSEG BANK_RELAYS:CODE:REORDER:NOROOT(0)
??LED1_toggle?relay:
        LCALL   ?BDISPATCH
        DATA
        DC24    LED1_toggle

        RSEG BANK_RELAYS:CODE:REORDER:NOROOT(0)
??LED2_toggle?relay:
        LCALL   ?BDISPATCH
        DATA
        DC24    LED2_toggle

        RSEG BANK_RELAYS:CODE:REORDER:NOROOT(0)
??Delay_us?relay:
        LCALL   ?BDISPATCH
        DATA
        DC24    Delay_us

        RSEG BANK_RELAYS:CODE:REORDER:NOROOT(0)
??Delay_10us?relay:
        LCALL   ?BDISPATCH
        DATA
        DC24    Delay_10us

        RSEG BANK_RELAYS:CODE:REORDER:NOROOT(0)
??Delay_ms?relay:
        LCALL   ?BDISPATCH
        DATA
        DC24    Delay_ms

        END
// 
// 113 bytes in segment BANKED_CODE
//  36 bytes in segment BANK_RELAYS
//   3 bytes in segment SFR_AN
// 
// 149 bytes of CODE memory
//   0 bytes of DATA memory (+ 3 bytes shared)
//
//Errors: none
//Warnings: none
